; Function Attrs: nounwind uwtable
define dso_local range(i32 0, 2) i32 @setup_tests() local_unnamed_addr #0 {
  %1 = tail call ptr @test_get_argument(i64 noundef 0) #3
  store ptr %1, ptr @cert_filename, align 8, !tbaa !4
  %2 = tail call i32 @test_ptr(ptr noundef nonnull @.str, i32 noundef 356, ptr noundef nonnull @.str.1, ptr noundef %1) #3
  %.not = icmp eq i32 %2, 0
  br i1 %.not, label %4, label %3

3:                                                ; preds = %0
  tail call void @add_all_tests(ptr noundef nonnull @.str.2, ptr noundef nonnull @test_pass_key, i32 noundef 1, i32 noundef 1) #3
  tail call void @add_all_tests(ptr noundef nonnull @.str.3, ptr noundef nonnull @test_evp_pkey_export_to_provider, i32 noundef 3, i32 noundef 1) #3
  br label %4

4:                                                ; preds = %0, %3
  %.0 = phi i32 [ 1, %3 ], [ 0, %0 ]
  ret i32 %.0
}